ccopy_reg
_reconstructor
p0
(cnetworkx.classes.graph
Graph
p1
c__builtin__
object
p2
Ntp3
Rp4
(dp5
S'node'
p6
(dp7
I0
(dp8
sI1
(dp9
sI2
(dp10
sI3
(dp11
sI4
(dp12
sI5
(dp13
sI6
(dp14
sI7
(dp15
sI8
(dp16
sI9
(dp17
sI10
(dp18
sI11
(dp19
sI12
(dp20
sI13
(dp21
sI14
(dp22
sI15
(dp23
sI16
(dp24
sI17
(dp25
sI18
(dp26
sI19
(dp27
sI20
(dp28
sI21
(dp29
sI22
(dp30
sI23
(dp31
sI24
(dp32
sI25
(dp33
sI26
(dp34
sI27
(dp35
sI28
(dp36
sI29
(dp37
sI30
(dp38
sI31
(dp39
sI32
(dp40
sI33
(dp41
sI34
(dp42
sI35
(dp43
sI36
(dp44
sI37
(dp45
sI38
(dp46
sI39
(dp47
sI40
(dp48
sI41
(dp49
sI42
(dp50
sI43
(dp51
sI44
(dp52
sI45
(dp53
sI46
(dp54
sI47
(dp55
sI48
(dp56
sI49
(dp57
sI50
(dp58
sI51
(dp59
sI52
(dp60
sI53
(dp61
sI54
(dp62
sI55
(dp63
sI56
(dp64
sI57
(dp65
sI58
(dp66
sI59
(dp67
sI60
(dp68
sI61
(dp69
sI62
(dp70
sI63
(dp71
sI64
(dp72
sI65
(dp73
sI66
(dp74
sI67
(dp75
sI68
(dp76
sI69
(dp77
sI70
(dp78
sI71
(dp79
sI72
(dp80
sI73
(dp81
sI74
(dp82
sI75
(dp83
sI76
(dp84
sI77
(dp85
sI78
(dp86
sI79
(dp87
sI80
(dp88
sI81
(dp89
sI82
(dp90
sI83
(dp91
sI84
(dp92
sI85
(dp93
sI86
(dp94
sI87
(dp95
sI88
(dp96
sI89
(dp97
sI90
(dp98
sI91
(dp99
sI92
(dp100
sI93
(dp101
sI94
(dp102
sI95
(dp103
sI96
(dp104
sI97
(dp105
sI98
(dp106
sI99
(dp107
sI100
(dp108
sI101
(dp109
sI102
(dp110
sI103
(dp111
sI104
(dp112
sI105
(dp113
sI106
(dp114
sI107
(dp115
sI108
(dp116
sI109
(dp117
sI110
(dp118
sI111
(dp119
sI112
(dp120
sI113
(dp121
sI114
(dp122
sI115
(dp123
sI116
(dp124
sI117
(dp125
sI118
(dp126
sI119
(dp127
sI120
(dp128
sI121
(dp129
sI122
(dp130
sI123
(dp131
sI124
(dp132
sI125
(dp133
sI126
(dp134
sI127
(dp135
sI128
(dp136
sI129
(dp137
sI130
(dp138
sI131
(dp139
sI132
(dp140
sI133
(dp141
sI134
(dp142
sI135
(dp143
sI136
(dp144
sI137
(dp145
sI138
(dp146
sI139
(dp147
sI140
(dp148
sI141
(dp149
sI142
(dp150
sI143
(dp151
sI144
(dp152
sI145
(dp153
sI146
(dp154
sI147
(dp155
sI148
(dp156
sI149
(dp157
sI150
(dp158
sI151
(dp159
sI152
(dp160
sI153
(dp161
sI154
(dp162
sI155
(dp163
sI156
(dp164
sI157
(dp165
sI158
(dp166
sI159
(dp167
sI160
(dp168
sI161
(dp169
sI162
(dp170
sI163
(dp171
sI164
(dp172
sI165
(dp173
sI166
(dp174
sI167
(dp175
sI168
(dp176
sI169
(dp177
sI170
(dp178
sI171
(dp179
sI172
(dp180
sI173
(dp181
sI174
(dp182
sI175
(dp183
sI176
(dp184
sI177
(dp185
sI178
(dp186
sI179
(dp187
sI180
(dp188
sI181
(dp189
sI182
(dp190
sI183
(dp191
sI184
(dp192
sI185
(dp193
sI186
(dp194
sI187
(dp195
sI188
(dp196
sI189
(dp197
sI190
(dp198
sI191
(dp199
sI192
(dp200
sI193
(dp201
sI194
(dp202
sI195
(dp203
sI196
(dp204
sI197
(dp205
sI198
(dp206
sI199
(dp207
ssS'graph'
p208
(dp209
S'name'
p210
S'gnp_random_graph(200,0.01)'
p211
ssS'edge'
p212
(dp213
I0
(dp214
I17
(dp215
sI60
(dp216
ssI1
(dp217
I130
(dp218
ssI2
(dp219
I129
(dp220
sI123
(dp221
sI116
(dp222
sI111
(dp223
ssI3
(dp224
I122
(dp225
sI60
(dp226
sI125
(dp227
ssI4
(dp228
sI5
(dp229
I56
(dp230
sI194
(dp231
ssI6
(dp232
I107
(dp233
ssI7
(dp234
I57
(dp235
sI81
(dp236
ssI8
(dp237
I120
(dp238
sI178
(dp239
sI29
(dp240
sI135
(dp241
ssI9
(dp242
I152
(dp243
sI75
(dp244
sI175
(dp245
ssI10
(dp246
I22
(dp247
ssI11
(dp248
I72
(dp249
sI77
(dp250
ssI12
(dp251
I68
(dp252
sI14
(dp253
ssI13
(dp254
I81
(dp255
sI130
(dp256
sI172
(dp257
ssI14
(dp258
I114
(dp259
sI12
g253
sI31
(dp260
ssI15
(dp261
I169
(dp262
sI78
(dp263
sI95
(dp264
ssI16
(dp265
sI17
(dp266
I0
g215
sI124
(dp267
sI134
(dp268
ssI18
(dp269
I57
(dp270
sI149
(dp271
ssI19
(dp272
I165
(dp273
ssI20
(dp274
I71
(dp275
ssI21
(dp276
I88
(dp277
ssI22
(dp278
I112
(dp279
sI10
g247
ssI23
(dp280
I64
(dp281
ssI24
(dp282
I38
(dp283
sI143
(dp284
ssI25
(dp285
I111
(dp286
ssI26
(dp287
I168
(dp288
ssI27
(dp289
I196
(dp290
ssI28
(dp291
I193
(dp292
sI133
(dp293
ssI29
(dp294
I8
g240
sI90
(dp295
sI133
(dp296
ssI30
(dp297
sI31
(dp298
I14
g260
ssI32
(dp299
I185
(dp300
ssI33
(dp301
I129
(dp302
ssI34
(dp303
I47
(dp304
ssI35
(dp305
I81
(dp306
sI182
(dp307
ssI36
(dp308
I141
(dp309
ssI37
(dp310
I89
(dp311
sI159
(dp312
ssI38
(dp313
I24
g283
sI47
(dp314
ssI39
(dp315
I91
(dp316
sI139
(dp317
sI94
(dp318
ssI40
(dp319
I82
(dp320
ssI41
(dp321
sI42
(dp322
I185
(dp323
sI190
(dp324
ssI43
(dp325
I88
(dp326
ssI44
(dp327
I196
(dp328
ssI45
(dp329
I161
(dp330
sI115
(dp331
sI108
(dp332
sI142
(dp333
ssI46
(dp334
I168
(dp335
sI110
(dp336
ssI47
(dp337
I34
g304
sI38
g314
ssI48
(dp338
I140
(dp339
sI111
(dp340
ssI49
(dp341
I64
(dp342
sI135
(dp343
sI198
(dp344
sI111
(dp345
ssI50
(dp346
I129
(dp347
sI173
(dp348
ssI51
(dp349
I194
(dp350
sI182
(dp351
ssI52
(dp352
I53
(dp353
sI198
(dp354
ssI53
(dp355
I180
(dp356
sI52
g353
ssI54
(dp357
I145
(dp358
ssI55
(dp359
I80
(dp360
sI171
(dp361
ssI56
(dp362
I154
(dp363
sI5
g230
ssI57
(dp364
I18
g270
sI147
(dp365
sI7
g235
ssI58
(dp366
I176
(dp367
ssI59
(dp368
sI60
(dp369
I0
g216
sI3
g226
sI132
(dp370
ssI61
(dp371
I170
(dp372
sI155
(dp373
sI151
(dp374
ssI62
(dp375
I199
(dp376
ssI63
(dp377
I136
(dp378
sI82
(dp379
ssI64
(dp380
I49
g342
sI97
(dp381
sI23
g281
ssI65
(dp382
I185
(dp383
sI174
(dp384
ssI66
(dp385
I69
(dp386
sI142
(dp387
ssI67
(dp388
I112
(dp389
sI100
(dp390
ssI68
(dp391
I128
(dp392
sI12
g252
ssI69
(dp393
I137
(dp394
sI66
g386
sI91
(dp395
ssI70
(dp396
sI71
(dp397
I20
g275
sI126
(dp398
ssI72
(dp399
I186
(dp400
sI11
g249
ssI73
(dp401
I83
(dp402
ssI74
(dp403
sI75
(dp404
I9
g244
sI118
(dp405
sI137
(dp406
ssI76
(dp407
sI77
(dp408
I11
g250
ssI78
(dp409
I15
g263
ssI79
(dp410
sI80
(dp411
I84
(dp412
sI55
g360
ssI81
(dp413
I35
g306
sI196
(dp414
sI7
g236
sI104
(dp415
sI171
(dp416
sI13
g255
sI176
(dp417
sI151
(dp418
ssI82
(dp419
I40
g320
sI63
g379
ssI83
(dp420
I73
g402
sI165
(dp421
ssI84
(dp422
I80
g412
sI155
(dp423
sI179
(dp424
ssI85
(dp425
I152
(dp426
ssI86
(dp427
I162
(dp428
sI179
(dp429
ssI87
(dp430
sI88
(dp431
I43
g326
sI21
g277
ssI89
(dp432
I37
g311
ssI90
(dp433
I193
(dp434
sI186
(dp435
sI29
g295
ssI91
(dp436
I153
(dp437
sI99
(dp438
sI69
g395
sI174
(dp439
sI39
g316
ssI92
(dp440
sI93
(dp441
I110
(dp442
ssI94
(dp443
I39
g318
ssI95
(dp444
I15
g264
ssI96
(dp445
sI97
(dp446
I64
g381
sI187
(dp447
ssI98
(dp448
sI99
(dp449
I145
(dp450
sI91
g438
ssI100
(dp451
I67
g390
ssI101
(dp452
I110
(dp453
ssI102
(dp454
I136
(dp455
sI141
(dp456
sI150
(dp457
ssI103
(dp458
I197
(dp459
ssI104
(dp460
I81
g415
ssI105
(dp461
sI106
(dp462
I115
(dp463
ssI107
(dp464
I125
(dp465
sI6
g233
ssI108
(dp466
I45
g332
ssI109
(dp467
I145
(dp468
ssI110
(dp469
I152
(dp470
sI93
g442
sI46
g336
sI101
g453
ssI111
(dp471
I48
g340
sI25
g286
sI2
g223
sI166
(dp472
sI49
g345
ssI112
(dp473
I67
g389
sI173
(dp474
sI22
g279
ssI113
(dp475
sI114
(dp476
I14
g259
ssI115
(dp477
I106
g463
sI45
g331
sI191
(dp478
ssI116
(dp479
I2
g222
ssI117
(dp480
I152
(dp481
ssI118
(dp482
I75
g405
ssI119
(dp483
I144
(dp484
ssI120
(dp485
I8
g238
sI140
(dp486
ssI121
(dp487
I149
(dp488
ssI122
(dp489
I3
g225
ssI123
(dp490
I2
g221
ssI124
(dp491
I17
g267
sI133
(dp492
sI173
(dp493
ssI125
(dp494
I107
g465
sI3
g227
ssI126
(dp495
I71
g398
ssI127
(dp496
sI128
(dp497
I68
g392
sI198
(dp498
ssI129
(dp499
I33
g302
sI2
g220
sI50
g347
ssI130
(dp500
I1
g218
sI13
g256
ssI131
(dp501
sI132
(dp502
I167
(dp503
sI60
g370
sI149
(dp504
sI159
(dp505
ssI133
(dp506
I124
g492
sI28
g293
sI29
g296
ssI134
(dp507
I17
g268
sI158
(dp508
ssI135
(dp509
I8
g241
sI49
g343
ssI136
(dp510
I178
(dp511
sI172
(dp512
sI102
g455
sI63
g378
ssI137
(dp513
I75
g406
sI69
g394
ssI138
(dp514
sI139
(dp515
I39
g317
ssI140
(dp516
I48
g339
sI120
g486
ssI141
(dp517
I185
(dp518
sI36
g309
sI102
g456
ssI142
(dp519
I66
g387
sI45
g333
ssI143
(dp520
I24
g284
sI147
(dp521
ssI144
(dp522
I119
g484
ssI145
(dp523
I99
g450
sI109
g468
sI54
g358
ssI146
(dp524
sI147
(dp525
I57
g365
sI143
g521
ssI148
(dp526
sI149
(dp527
I121
g488
sI18
g271
sI132
g504
sI199
(dp528
ssI150
(dp529
I102
g457
ssI151
(dp530
I168
(dp531
sI81
g418
sI61
g374
ssI152
(dp532
I9
g243
sI189
(dp533
sI85
g426
sI110
g470
sI117
g481
ssI153
(dp534
I91
g437
ssI154
(dp535
I56
g363
ssI155
(dp536
I84
g423
sI61
g373
sI198
(dp537
ssI156
(dp538
sI157
(dp539
I161
(dp540
ssI158
(dp541
I134
g508
ssI159
(dp542
I180
(dp543
sI132
g505
sI37
g312
ssI160
(dp544
sI161
(dp545
I175
(dp546
sI45
g330
sI157
g540
ssI162
(dp547
I171
(dp548
sI86
g428
ssI163
(dp549
sI164
(dp550
sI165
(dp551
I83
g421
sI19
g273
ssI166
(dp552
I111
g472
ssI167
(dp553
I132
g503
ssI168
(dp554
I26
g288
sI46
g335
sI151
g531
ssI169
(dp555
I15
g262
ssI170
(dp556
I61
g372
ssI171
(dp557
I81
g416
sI162
g548
sI55
g361
ssI172
(dp558
I136
g512
sI13
g257
ssI173
(dp559
I112
g474
sI50
g348
sI124
g493
ssI174
(dp560
I65
g384
sI91
g439
ssI175
(dp561
I9
g245
sI161
g546
ssI176
(dp562
I81
g417
sI58
g367
ssI177
(dp563
sI178
(dp564
I8
g239
sI136
g511
ssI179
(dp565
I84
g424
sI86
g429
ssI180
(dp566
I53
g356
sI159
g543
ssI181
(dp567
sI182
(dp568
I51
g351
sI35
g307
ssI183
(dp569
sI184
(dp570
sI185
(dp571
I32
g300
sI65
g383
sI42
g323
sI141
g518
ssI186
(dp572
I72
g400
sI90
g435
ssI187
(dp573
I97
g447
ssI188
(dp574
I195
(dp575
ssI189
(dp576
I152
g533
ssI190
(dp577
I42
g324
ssI191
(dp578
I115
g478
ssI192
(dp579
sI193
(dp580
I90
g434
sI28
g292
ssI194
(dp581
I51
g350
sI5
g231
ssI195
(dp582
I196
(dp583
sI188
g575
ssI196
(dp584
I81
g414
sI27
g290
sI44
g328
sI195
g583
ssI197
(dp585
I103
g459
ssI198
(dp586
I128
g498
sI49
g344
sI155
g537
sI52
g354
ssI199
(dp587
I149
g528
sI62
g376
sssS'adj'
p588
g213
sb.